target datalayout = "e-m:e-p270:32:32-p271:32:32-p272:64:64-i64:64-i128:128-f80:128-n8:16:32:64-S128"
target triple = "x86_64-pc-linux-gnu"

%struct.yyguts_t = type { ptr, ptr, ptr, i64, i64, ptr, i8, i32, i32, ptr, i32, i32, i32, i32, i32, ptr, i32, ptr, i32, i32, ptr, i32, i32 }
%struct.yy_buffer_state = type { ptr, ptr, ptr, i32, i32, i32, i32, i32, i32, i32, i32, i32 }

@.str.4 = private unnamed_addr constant [42 x i8] c"out of dynamic memory in yy_scan_buffer()\00", align 1

; Function Attrs: nounwind null_pointer_is_valid sspstrong uwtable
define internal void @k12text__load_buffer_state(ptr noundef %0) #2 {
  %2 = alloca ptr, align 8
  %3 = alloca ptr, align 8
  store ptr %0, ptr %2, align 8
  call void @llvm.lifetime.start.p0(i64 8, ptr %3) #16
  %4 = load ptr, ptr %2, align 8
  store ptr %4, ptr %3, align 8
  %5 = load ptr, ptr %3, align 8
  %6 = getelementptr inbounds nuw %struct.yyguts_t, ptr %5, i32 0, i32 5
  %7 = load ptr, ptr %6, align 8
  %8 = load ptr, ptr %3, align 8
  %9 = getelementptr inbounds nuw %struct.yyguts_t, ptr %8, i32 0, i32 3
  %10 = load i64, ptr %9, align 8
  %11 = getelementptr ptr, ptr %7, i64 %10
  %12 = load ptr, ptr %11, align 8
  %13 = getelementptr inbounds nuw %struct.yy_buffer_state, ptr %12, i32 0, i32 4
  %14 = load i32, ptr %13, align 4
  %15 = load ptr, ptr %3, align 8
  %16 = getelementptr inbounds nuw %struct.yyguts_t, ptr %15, i32 0, i32 7
  store i32 %14, ptr %16, align 4
  %17 = load ptr, ptr %3, align 8
  %18 = getelementptr inbounds nuw %struct.yyguts_t, ptr %17, i32 0, i32 5
  %19 = load ptr, ptr %18, align 8
  %20 = load ptr, ptr %3, align 8
  %21 = getelementptr inbounds nuw %struct.yyguts_t, ptr %20, i32 0, i32 3
  %22 = load i64, ptr %21, align 8
  %23 = getelementptr ptr, ptr %19, i64 %22
  %24 = load ptr, ptr %23, align 8
  %25 = getelementptr inbounds nuw %struct.yy_buffer_state, ptr %24, i32 0, i32 2
  %26 = load ptr, ptr %25, align 8
  %27 = load ptr, ptr %3, align 8
  %28 = getelementptr inbounds nuw %struct.yyguts_t, ptr %27, i32 0, i32 9
  store ptr %26, ptr %28, align 8
  %29 = load ptr, ptr %3, align 8
  %30 = getelementptr inbounds nuw %struct.yyguts_t, ptr %29, i32 0, i32 20
  store ptr %26, ptr %30, align 8
  %31 = load ptr, ptr %3, align 8
  %32 = getelementptr inbounds nuw %struct.yyguts_t, ptr %31, i32 0, i32 5
  %33 = load ptr, ptr %32, align 8
  %34 = load ptr, ptr %3, align 8
  %35 = getelementptr inbounds nuw %struct.yyguts_t, ptr %34, i32 0, i32 3
  %36 = load i64, ptr %35, align 8
  %37 = getelementptr ptr, ptr %33, i64 %36
  %38 = load ptr, ptr %37, align 8
  %39 = getelementptr inbounds nuw %struct.yy_buffer_state, ptr %38, i32 0, i32 0
  %40 = load ptr, ptr %39, align 8
  %41 = load ptr, ptr %3, align 8
  %42 = getelementptr inbounds nuw %struct.yyguts_t, ptr %41, i32 0, i32 1
  store ptr %40, ptr %42, align 8
  %43 = load ptr, ptr %3, align 8
  %44 = getelementptr inbounds nuw %struct.yyguts_t, ptr %43, i32 0, i32 9
  %45 = load ptr, ptr %44, align 8
  %46 = load i8, ptr %45, align 1
  %47 = load ptr, ptr %3, align 8
  %48 = getelementptr inbounds nuw %struct.yyguts_t, ptr %47, i32 0, i32 6
  store i8 %46, ptr %48, align 8
  call void @llvm.lifetime.end.p0(i64 8, ptr %3) #16
  ret void
}

; Function Attrs: null_pointer_is_valid sspstrong uwtable
define hidden void @k12text__switch_to_buffer(ptr noundef %0, ptr noundef %1) #0 {
  %3 = alloca ptr, align 8
  %4 = alloca ptr, align 8
  %5 = alloca ptr, align 8
  %6 = alloca i32, align 4
  store ptr %0, ptr %3, align 8
  store ptr %1, ptr %4, align 8
  call void @llvm.lifetime.start.p0(i64 8, ptr %5) #16
  %7 = load ptr, ptr %4, align 8
  store ptr %7, ptr %5, align 8
  %8 = load ptr, ptr %4, align 8
  call void @k12text_ensure_buffer_stack(ptr noundef %8)
  %9 = load ptr, ptr %5, align 8
  %10 = getelementptr inbounds nuw %struct.yyguts_t, ptr %9, i32 0, i32 5
  %11 = load ptr, ptr %10, align 8
  %12 = icmp ne ptr %11, null
  br i1 %12, label %13, label %22

13:                                               ; preds = %2
  %14 = load ptr, ptr %5, align 8
  %15 = getelementptr inbounds nuw %struct.yyguts_t, ptr %14, i32 0, i32 5
  %16 = load ptr, ptr %15, align 8
  %17 = load ptr, ptr %5, align 8
  %18 = getelementptr inbounds nuw %struct.yyguts_t, ptr %17, i32 0, i32 3
  %19 = load i64, ptr %18, align 8
  %20 = getelementptr ptr, ptr %16, i64 %19
  %21 = load ptr, ptr %20, align 8
  br label %23

22:                                               ; preds = %2
  br label %23

23:                                               ; preds = %22, %13
  %24 = phi ptr [ %21, %13 ], [ null, %22 ]
  %25 = load ptr, ptr %3, align 8
  %26 = icmp eq ptr %24, %25
  br i1 %26, label %27, label %28

27:                                               ; preds = %23
  store i32 1, ptr %6, align 4
  br label %87

28:                                               ; preds = %23
  %29 = load ptr, ptr %5, align 8
  %30 = getelementptr inbounds nuw %struct.yyguts_t, ptr %29, i32 0, i32 5
  %31 = load ptr, ptr %30, align 8
  %32 = icmp ne ptr %31, null
  br i1 %32, label %33, label %43

33:                                               ; preds = %28
  %34 = load ptr, ptr %5, align 8
  %35 = getelementptr inbounds nuw %struct.yyguts_t, ptr %34, i32 0, i32 5
  %36 = load ptr, ptr %35, align 8
  %37 = load ptr, ptr %5, align 8
  %38 = getelementptr inbounds nuw %struct.yyguts_t, ptr %37, i32 0, i32 3
  %39 = load i64, ptr %38, align 8
  %40 = getelementptr ptr, ptr %36, i64 %39
  %41 = load ptr, ptr %40, align 8
  %42 = icmp ne ptr %41, null
  br i1 %42, label %44, label %75

43:                                               ; preds = %28
  br i1 false, label %44, label %75

44:                                               ; preds = %43, %33
  %45 = load ptr, ptr %5, align 8
  %46 = getelementptr inbounds nuw %struct.yyguts_t, ptr %45, i32 0, i32 6
  %47 = load i8, ptr %46, align 8
  %48 = load ptr, ptr %5, align 8
  %49 = getelementptr inbounds nuw %struct.yyguts_t, ptr %48, i32 0, i32 9
  %50 = load ptr, ptr %49, align 8
  store i8 %47, ptr %50, align 1
  %51 = load ptr, ptr %5, align 8
  %52 = getelementptr inbounds nuw %struct.yyguts_t, ptr %51, i32 0, i32 9
  %53 = load ptr, ptr %52, align 8
  %54 = load ptr, ptr %5, align 8
  %55 = getelementptr inbounds nuw %struct.yyguts_t, ptr %54, i32 0, i32 5
  %56 = load ptr, ptr %55, align 8
  %57 = load ptr, ptr %5, align 8
  %58 = getelementptr inbounds nuw %struct.yyguts_t, ptr %57, i32 0, i32 3
  %59 = load i64, ptr %58, align 8
  %60 = getelementptr ptr, ptr %56, i64 %59
  %61 = load ptr, ptr %60, align 8
  %62 = getelementptr inbounds nuw %struct.yy_buffer_state, ptr %61, i32 0, i32 2
  store ptr %53, ptr %62, align 8
  %63 = load ptr, ptr %5, align 8
  %64 = getelementptr inbounds nuw %struct.yyguts_t, ptr %63, i32 0, i32 7
  %65 = load i32, ptr %64, align 4
  %66 = load ptr, ptr %5, align 8
  %67 = getelementptr inbounds nuw %struct.yyguts_t, ptr %66, i32 0, i32 5
  %68 = load ptr, ptr %67, align 8
  %69 = load ptr, ptr %5, align 8
  %70 = getelementptr inbounds nuw %struct.yyguts_t, ptr %69, i32 0, i32 3
  %71 = load i64, ptr %70, align 8
  %72 = getelementptr ptr, ptr %68, i64 %71
  %73 = load ptr, ptr %72, align 8
  %74 = getelementptr inbounds nuw %struct.yy_buffer_state, ptr %73, i32 0, i32 4
  store i32 %65, ptr %74, align 4
  br label %75

75:                                               ; preds = %44, %43, %33
  %76 = load ptr, ptr %3, align 8
  %77 = load ptr, ptr %5, align 8
  %78 = getelementptr inbounds nuw %struct.yyguts_t, ptr %77, i32 0, i32 5
  %79 = load ptr, ptr %78, align 8
  %80 = load ptr, ptr %5, align 8
  %81 = getelementptr inbounds nuw %struct.yyguts_t, ptr %80, i32 0, i32 3
  %82 = load i64, ptr %81, align 8
  %83 = getelementptr ptr, ptr %79, i64 %82
  store ptr %76, ptr %83, align 8
  %84 = load ptr, ptr %4, align 8
  call void @k12text__load_buffer_state(ptr noundef %84)
  %85 = load ptr, ptr %5, align 8
  %86 = getelementptr inbounds nuw %struct.yyguts_t, ptr %85, i32 0, i32 12
  store i32 1, ptr %86, align 8
  store i32 0, ptr %6, align 4
  br label %87

87:                                               ; preds = %75, %27
  call void @llvm.lifetime.end.p0(i64 8, ptr %5) #16
  %88 = load i32, ptr %6, align 4
  switch i32 %88, label %90 [
    i32 0, label %89
    i32 1, label %89
  ]

89:                                               ; preds = %87, %87
  ret void

90:                                               ; preds = %87
  unreachable
}

; Function Attrs: null_pointer_is_valid sspstrong uwtable
define hidden ptr @k12text__scan_buffer(ptr noundef %0, i64 noundef %1, ptr noundef %2) #0 {
  %4 = alloca ptr, align 8
  %5 = alloca ptr, align 8
  %6 = alloca i64, align 8
  %7 = alloca ptr, align 8
  %8 = alloca ptr, align 8
  %9 = alloca i32, align 4
  store ptr %0, ptr %5, align 8
  store i64 %1, ptr %6, align 8
  store ptr %2, ptr %7, align 8
  call void @llvm.lifetime.start.p0(i64 8, ptr %8) #16
  %10 = load i64, ptr %6, align 8
  %11 = icmp ult i64 %10, 2
  br i1 %11, label %28, label %12

12:                                               ; preds = %3
  %13 = load ptr, ptr %5, align 8
  %14 = load i64, ptr %6, align 8
  %15 = sub i64 %14, 2
  %16 = getelementptr i8, ptr %13, i64 %15
  %17 = load i8, ptr %16, align 1
  %18 = sext i8 %17 to i32
  %19 = icmp ne i32 %18, 0
  br i1 %19, label %28, label %20

20:                                               ; preds = %12
  %21 = load ptr, ptr %5, align 8
  %22 = load i64, ptr %6, align 8
  %23 = sub i64 %22, 1
  %24 = getelementptr i8, ptr %21, i64 %23
  %25 = load i8, ptr %24, align 1
  %26 = sext i8 %25 to i32
  %27 = icmp ne i32 %26, 0
  br i1 %27, label %28, label %29

28:                                               ; preds = %20, %12, %3
  store ptr null, ptr %4, align 8
  store i32 1, ptr %9, align 4
  br label %66

29:                                               ; preds = %20
  %30 = call noalias ptr @malloc(i64 noundef 64) #18
  store ptr %30, ptr %8, align 8
  %31 = load ptr, ptr %8, align 8
  %32 = icmp ne ptr %31, null
  br i1 %32, label %35, label %33

33:                                               ; preds = %29
  %34 = load ptr, ptr %7, align 8
  call void @yy_fatal_error(ptr noundef @.str.4, ptr noundef %34) #17
  unreachable

35:                                               ; preds = %29
  %36 = load i64, ptr %6, align 8
  %37 = sub i64 %36, 2
  %38 = trunc i64 %37 to i32
  %39 = load ptr, ptr %8, align 8
  %40 = getelementptr inbounds nuw %struct.yy_buffer_state, ptr %39, i32 0, i32 3
  store i32 %38, ptr %40, align 8
  %41 = load ptr, ptr %5, align 8
  %42 = load ptr, ptr %8, align 8
  %43 = getelementptr inbounds nuw %struct.yy_buffer_state, ptr %42, i32 0, i32 1
  store ptr %41, ptr %43, align 8
  %44 = load ptr, ptr %8, align 8
  %45 = getelementptr inbounds nuw %struct.yy_buffer_state, ptr %44, i32 0, i32 2
  store ptr %41, ptr %45, align 8
  %46 = load ptr, ptr %8, align 8
  %47 = getelementptr inbounds nuw %struct.yy_buffer_state, ptr %46, i32 0, i32 5
  store i32 0, ptr %47, align 8
  %48 = load ptr, ptr %8, align 8
  %49 = getelementptr inbounds nuw %struct.yy_buffer_state, ptr %48, i32 0, i32 0
  store ptr null, ptr %49, align 8
  %50 = load ptr, ptr %8, align 8
  %51 = getelementptr inbounds nuw %struct.yy_buffer_state, ptr %50, i32 0, i32 3
  %52 = load i32, ptr %51, align 8
  %53 = load ptr, ptr %8, align 8
  %54 = getelementptr inbounds nuw %struct.yy_buffer_state, ptr %53, i32 0, i32 4
  store i32 %52, ptr %54, align 4
  %55 = load ptr, ptr %8, align 8
  %56 = getelementptr inbounds nuw %struct.yy_buffer_state, ptr %55, i32 0, i32 6
  store i32 0, ptr %56, align 4
  %57 = load ptr, ptr %8, align 8
  %58 = getelementptr inbounds nuw %struct.yy_buffer_state, ptr %57, i32 0, i32 7
  store i32 1, ptr %58, align 8
  %59 = load ptr, ptr %8, align 8
  %60 = getelementptr inbounds nuw %struct.yy_buffer_state, ptr %59, i32 0, i32 10
  store i32 0, ptr %60, align 4
  %61 = load ptr, ptr %8, align 8
  %62 = getelementptr inbounds nuw %struct.yy_buffer_state, ptr %61, i32 0, i32 11
  store i32 0, ptr %62, align 8
  %63 = load ptr, ptr %8, align 8
  %64 = load ptr, ptr %7, align 8
  call void @k12text__switch_to_buffer(ptr noundef %63, ptr noundef %64)
  %65 = load ptr, ptr %8, align 8
  store ptr %65, ptr %4, align 8
  store i32 1, ptr %9, align 4
  br label %66

66:                                               ; preds = %35, %28
  call void @llvm.lifetime.end.p0(i64 8, ptr %8) #16
  %67 = load ptr, ptr %4, align 8
  ret ptr %67
}